target datalayout = "e-m:e-p270:32:32-p271:32:32-p272:64:64-i64:64-i128:128-f80:128-n8:16:32:64-S128"
target triple = "x86_64-pc-linux-gnu"

%struct.ident_t = type { i32, i32, i32, i32, ptr }

@1 = private unnamed_addr constant %struct.ident_t { i32 0, i32 514, i32 0, i32 22, ptr @0 }, align 8

; Function Attrs: alwaysinline norecurse nounwind uwtable
define internal void @_ZNK4ncnn16Scale_x86_avx51215forward_inplaceERSt6vectorINS_3MatESaIS2_EERKNS_6OptionE.omp_outlined.3(ptr noalias noundef %0, ptr noalias noundef %1, ptr noundef nonnull align 4 dereferenceable(4) %2, ptr noundef nonnull align 4 dereferenceable(4) %3, ptr noundef nonnull align 8 dereferenceable(8) %4, ptr noundef nonnull align 8 dereferenceable(8) %5, ptr noundef nonnull align 8 dereferenceable(8) %6) #16 {
  %8 = alloca ptr, align 8
  %9 = alloca ptr, align 8
  %10 = alloca ptr, align 8
  %11 = alloca ptr, align 8
  %12 = alloca ptr, align 8
  %13 = alloca ptr, align 8
  %14 = alloca ptr, align 8
  %15 = alloca i32, align 4
  %16 = alloca i32, align 4
  %17 = alloca i32, align 4
  %18 = alloca i32, align 4
  %19 = alloca i32, align 4
  %20 = alloca i32, align 4
  %21 = alloca i32, align 4
  %22 = alloca i32, align 4
  %23 = alloca i32, align 4
  %24 = alloca i32, align 4
  store ptr %0, ptr %8, align 8, !tbaa !54
  store ptr %1, ptr %9, align 8, !tbaa !54
  store ptr %2, ptr %10, align 8, !tbaa !54
  store ptr %3, ptr %11, align 8, !tbaa !54
  store ptr %4, ptr %12, align 8, !tbaa !55
  store ptr %5, ptr %13, align 8, !tbaa !55
  store ptr %6, ptr %14, align 8, !tbaa !55
  %25 = load ptr, ptr %10, align 8, !tbaa !54
  %26 = load ptr, ptr %11, align 8, !tbaa !54
  %27 = load ptr, ptr %12, align 8, !tbaa !55
  %28 = load ptr, ptr %13, align 8, !tbaa !55
  %29 = load ptr, ptr %14, align 8, !tbaa !55
  call void @llvm.lifetime.start.p0(i64 4, ptr %15) #7
  call void @llvm.lifetime.start.p0(i64 4, ptr %16) #7
  %30 = load i32, ptr %26, align 4, !tbaa !25
  store i32 %30, ptr %16, align 4, !tbaa !25
  call void @llvm.lifetime.start.p0(i64 4, ptr %17) #7
  %31 = load i32, ptr %25, align 4, !tbaa !25
  store i32 %31, ptr %17, align 4, !tbaa !25
  call void @llvm.lifetime.start.p0(i64 4, ptr %18) #7
  %32 = load i32, ptr %17, align 4, !tbaa !25
  %33 = load i32, ptr %16, align 4, !tbaa !25
  %34 = sub i32 %32, %33
  %35 = sub i32 %34, 1
  %36 = add i32 %35, 1
  %37 = udiv i32 %36, 1
  %38 = sub i32 %37, 1
  store i32 %38, ptr %18, align 4, !tbaa !25
  call void @llvm.lifetime.start.p0(i64 4, ptr %19) #7
  %39 = load i32, ptr %16, align 4, !tbaa !25
  store i32 %39, ptr %19, align 4, !tbaa !25
  call void @llvm.lifetime.end.p0(i64 4, ptr %19) #7
  %40 = load i32, ptr %16, align 4, !tbaa !25
  %41 = load i32, ptr %17, align 4, !tbaa !25
  %42 = icmp slt i32 %40, %41
  br i1 %42, label %43, label %97

43:                                               ; preds = %7
  call void @llvm.lifetime.start.p0(i64 4, ptr %20) #7
  store i32 0, ptr %20, align 4, !tbaa !25
  call void @llvm.lifetime.start.p0(i64 4, ptr %21) #7
  %44 = load i32, ptr %18, align 4, !tbaa !25
  store i32 %44, ptr %21, align 4, !tbaa !25
  call void @llvm.lifetime.start.p0(i64 4, ptr %22) #7
  store i32 1, ptr %22, align 4, !tbaa !25
  call void @llvm.lifetime.start.p0(i64 4, ptr %23) #7
  store i32 0, ptr %23, align 4, !tbaa !25
  call void @llvm.lifetime.start.p0(i64 4, ptr %24) #7
  %45 = load ptr, ptr %8, align 8
  %46 = load i32, ptr %45, align 4, !tbaa !25
  call void @__kmpc_for_static_init_4u(ptr @1, i32 %46, i32 34, ptr %23, ptr %20, ptr %21, ptr %22, i32 1, i32 1)
  %47 = load i32, ptr %21, align 4, !tbaa !25
  %48 = load i32, ptr %18, align 4, !tbaa !25
  %49 = icmp ugt i32 %47, %48
  br i1 %49, label %50, label %52

50:                                               ; preds = %43
  %51 = load i32, ptr %18, align 4, !tbaa !25
  br label %54

52:                                               ; preds = %43
  %53 = load i32, ptr %21, align 4, !tbaa !25
  br label %54

54:                                               ; preds = %52, %50
  %55 = phi i32 [ %51, %50 ], [ %53, %52 ]
  store i32 %55, ptr %21, align 4, !tbaa !25
  %56 = load i32, ptr %20, align 4, !tbaa !25
  store i32 %56, ptr %15, align 4, !tbaa !25
  br label %57

57:                                               ; preds = %90, %54
  %58 = load i32, ptr %15, align 4, !tbaa !25
  %59 = load i32, ptr %21, align 4, !tbaa !25
  %60 = add i32 %59, 1
  %61 = icmp ult i32 %58, %60
  br i1 %61, label %63, label %62

62:                                               ; preds = %57
  br label %93

63:                                               ; preds = %57
  %64 = load i32, ptr %16, align 4, !tbaa !25
  %65 = load i32, ptr %15, align 4, !tbaa !25
  %66 = mul i32 %65, 1
  %67 = add i32 %64, %66
  store i32 %67, ptr %24, align 4, !tbaa !25
  %68 = load ptr, ptr %27, align 8, !tbaa !31
  %69 = load i32, ptr %24, align 4, !tbaa !25
  %70 = sext i32 %69 to i64
  %71 = getelementptr inbounds float, ptr %68, i64 %70
  %72 = load float, ptr %71, align 4, !tbaa !62
  %73 = load ptr, ptr %28, align 8, !tbaa !31
  %74 = load i32, ptr %24, align 4, !tbaa !25
  %75 = sext i32 %74 to i64
  %76 = getelementptr inbounds float, ptr %73, i64 %75
  %77 = load float, ptr %76, align 4, !tbaa !62
  %78 = fmul fast float %72, %77
  %79 = load ptr, ptr %29, align 8, !tbaa !31
  %80 = load i32, ptr %24, align 4, !tbaa !25
  %81 = sext i32 %80 to i64
  %82 = getelementptr inbounds float, ptr %79, i64 %81
  %83 = load float, ptr %82, align 4, !tbaa !62
  %84 = fadd fast float %78, %83
  %85 = load ptr, ptr %27, align 8, !tbaa !31
  %86 = load i32, ptr %24, align 4, !tbaa !25
  %87 = sext i32 %86 to i64
  %88 = getelementptr inbounds float, ptr %85, i64 %87
  store float %84, ptr %88, align 4, !tbaa !62
  br label %89

89:                                               ; preds = %63
  br label %90

90:                                               ; preds = %89
  %91 = load i32, ptr %15, align 4, !tbaa !25
  %92 = add i32 %91, 1
  store i32 %92, ptr %15, align 4, !tbaa !25
  br label %57

93:                                               ; preds = %62
  br label %94

94:                                               ; preds = %93
  %95 = load ptr, ptr %8, align 8
  %96 = load i32, ptr %95, align 4, !tbaa !25
  call void @__kmpc_for_static_fini(ptr @1, i32 %96)
  call void @llvm.lifetime.end.p0(i64 4, ptr %24) #7
  call void @llvm.lifetime.end.p0(i64 4, ptr %23) #7
  call void @llvm.lifetime.end.p0(i64 4, ptr %22) #7
  call void @llvm.lifetime.end.p0(i64 4, ptr %21) #7
  call void @llvm.lifetime.end.p0(i64 4, ptr %20) #7
  br label %97

97:                                               ; preds = %94, %7
  call void @llvm.lifetime.end.p0(i64 4, ptr %18) #7
  call void @llvm.lifetime.end.p0(i64 4, ptr %17) #7
  call void @llvm.lifetime.end.p0(i64 4, ptr %16) #7
  call void @llvm.lifetime.end.p0(i64 4, ptr %15) #7
  ret void
}